target datalayout = "e-m:e-p270:32:32-p271:32:32-p272:64:64-i64:64-i128:128-f80:128-n8:16:32:64-S128"
target triple = "x86_64-pc-linux-gnu"

%struct.ARKodeHAdaptMemRec = type { double, double, double, double, i32, double, double, double, double, double, double, i32, i32, i32, i32, ptr, i32, ptr, ptr, i64, i64 }

@.str = private unnamed_addr constant [28 x i8] c"ark_hadapt: etamax = %.16g\0A\00", align 1
@.str.1 = private unnamed_addr constant [28 x i8] c"ark_hadapt: etamx1 = %.16g\0A\00", align 1
@.str.2 = private unnamed_addr constant [28 x i8] c"ark_hadapt: etamxf = %.16g\0A\00", align 1
@.str.3 = private unnamed_addr constant [28 x i8] c"ark_hadapt: etamin = %.16g\0A\00", align 1
@.str.4 = private unnamed_addr constant [28 x i8] c"ark_hadapt: small_nef = %i\0A\00", align 1
@.str.5 = private unnamed_addr constant [27 x i8] c"ark_hadapt: etacf = %.16g\0A\00", align 1
@.str.6 = private unnamed_addr constant [25 x i8] c"ark_hadapt: cfl = %.16g\0A\00", align 1
@.str.7 = private unnamed_addr constant [28 x i8] c"ark_hadapt: safety = %.16g\0A\00", align 1
@.str.8 = private unnamed_addr constant [28 x i8] c"ark_hadapt: growth = %.16g\0A\00", align 1
@.str.9 = private unnamed_addr constant [28 x i8] c"ark_hadapt: lbound = %.16g\0A\00", align 1
@.str.10 = private unnamed_addr constant [28 x i8] c"ark_hadapt: ubound = %.16g\0A\00", align 1
@.str.11 = private unnamed_addr constant [27 x i8] c"ark_hadapt: nst_acc = %li\0A\00", align 1
@.str.12 = private unnamed_addr constant [27 x i8] c"ark_hadapt: nst_exp = %li\0A\00", align 1
@.str.13 = private unnamed_addr constant [21 x i8] c"ark_hadapt: pq = %i\0A\00", align 1
@.str.14 = private unnamed_addr constant [20 x i8] c"ark_hadapt: p = %i\0A\00", align 1
@.str.15 = private unnamed_addr constant [20 x i8] c"ark_hadapt: q = %i\0A\00", align 1
@.str.16 = private unnamed_addr constant [25 x i8] c"ark_hadapt: adjust = %i\0A\00", align 1
@.str.17 = private unnamed_addr constant [51 x i8] c"  ark_hadapt: Default explicit stability function\0A\00", align 1
@.str.18 = private unnamed_addr constant [57 x i8] c"  ark_hadapt: User provided explicit stability function\0A\00", align 1
@.str.19 = private unnamed_addr constant [52 x i8] c"  ark_hadapt: stability function data pointer = %p\0A\00", align 1

; Function Attrs: nounwind uwtable
define void @arkPrintAdaptMem(ptr noundef %0, ptr noundef %1) #0 {
  %3 = alloca ptr, align 8
  %4 = alloca ptr, align 8
  store ptr %0, ptr %3, align 8, !tbaa !3
  store ptr %1, ptr %4, align 8, !tbaa !15
  %5 = load ptr, ptr %3, align 8, !tbaa !3
  %6 = icmp ne ptr %5, null
  br i1 %6, label %7, label %120

7:                                                ; preds = %2
  %8 = load ptr, ptr %4, align 8, !tbaa !15
  %9 = load ptr, ptr %3, align 8, !tbaa !3
  %10 = getelementptr inbounds nuw %struct.ARKodeHAdaptMemRec, ptr %9, i32 0, i32 0
  %11 = load double, ptr %10, align 8, !tbaa !17
  %12 = call i32 (ptr, ptr, ...) @fprintf(ptr noundef %8, ptr noundef @.str, double noundef %11) #7
  %13 = load ptr, ptr %4, align 8, !tbaa !15
  %14 = load ptr, ptr %3, align 8, !tbaa !3
  %15 = getelementptr inbounds nuw %struct.ARKodeHAdaptMemRec, ptr %14, i32 0, i32 1
  %16 = load double, ptr %15, align 8, !tbaa !18
  %17 = call i32 (ptr, ptr, ...) @fprintf(ptr noundef %13, ptr noundef @.str.1, double noundef %16) #7
  %18 = load ptr, ptr %4, align 8, !tbaa !15
  %19 = load ptr, ptr %3, align 8, !tbaa !3
  %20 = getelementptr inbounds nuw %struct.ARKodeHAdaptMemRec, ptr %19, i32 0, i32 2
  %21 = load double, ptr %20, align 8, !tbaa !19
  %22 = call i32 (ptr, ptr, ...) @fprintf(ptr noundef %18, ptr noundef @.str.2, double noundef %21) #7
  %23 = load ptr, ptr %4, align 8, !tbaa !15
  %24 = load ptr, ptr %3, align 8, !tbaa !3
  %25 = getelementptr inbounds nuw %struct.ARKodeHAdaptMemRec, ptr %24, i32 0, i32 3
  %26 = load double, ptr %25, align 8, !tbaa !20
  %27 = call i32 (ptr, ptr, ...) @fprintf(ptr noundef %23, ptr noundef @.str.3, double noundef %26) #7
  %28 = load ptr, ptr %4, align 8, !tbaa !15
  %29 = load ptr, ptr %3, align 8, !tbaa !3
  %30 = getelementptr inbounds nuw %struct.ARKodeHAdaptMemRec, ptr %29, i32 0, i32 4
  %31 = load i32, ptr %30, align 8, !tbaa !21
  %32 = call i32 (ptr, ptr, ...) @fprintf(ptr noundef %28, ptr noundef @.str.4, i32 noundef %31) #7
  %33 = load ptr, ptr %4, align 8, !tbaa !15
  %34 = load ptr, ptr %3, align 8, !tbaa !3
  %35 = getelementptr inbounds nuw %struct.ARKodeHAdaptMemRec, ptr %34, i32 0, i32 5
  %36 = load double, ptr %35, align 8, !tbaa !22
  %37 = call i32 (ptr, ptr, ...) @fprintf(ptr noundef %33, ptr noundef @.str.5, double noundef %36) #7
  %38 = load ptr, ptr %4, align 8, !tbaa !15
  %39 = load ptr, ptr %3, align 8, !tbaa !3
  %40 = getelementptr inbounds nuw %struct.ARKodeHAdaptMemRec, ptr %39, i32 0, i32 6
  %41 = load double, ptr %40, align 8, !tbaa !23
  %42 = call i32 (ptr, ptr, ...) @fprintf(ptr noundef %38, ptr noundef @.str.6, double noundef %41) #7
  %43 = load ptr, ptr %4, align 8, !tbaa !15
  %44 = load ptr, ptr %3, align 8, !tbaa !3
  %45 = getelementptr inbounds nuw %struct.ARKodeHAdaptMemRec, ptr %44, i32 0, i32 7
  %46 = load double, ptr %45, align 8, !tbaa !24
  %47 = call i32 (ptr, ptr, ...) @fprintf(ptr noundef %43, ptr noundef @.str.7, double noundef %46) #7
  %48 = load ptr, ptr %4, align 8, !tbaa !15
  %49 = load ptr, ptr %3, align 8, !tbaa !3
  %50 = getelementptr inbounds nuw %struct.ARKodeHAdaptMemRec, ptr %49, i32 0, i32 8
  %51 = load double, ptr %50, align 8, !tbaa !25
  %52 = call i32 (ptr, ptr, ...) @fprintf(ptr noundef %48, ptr noundef @.str.8, double noundef %51) #7
  %53 = load ptr, ptr %4, align 8, !tbaa !15
  %54 = load ptr, ptr %3, align 8, !tbaa !3
  %55 = getelementptr inbounds nuw %struct.ARKodeHAdaptMemRec, ptr %54, i32 0, i32 9
  %56 = load double, ptr %55, align 8, !tbaa !26
  %57 = call i32 (ptr, ptr, ...) @fprintf(ptr noundef %53, ptr noundef @.str.9, double noundef %56) #7
  %58 = load ptr, ptr %4, align 8, !tbaa !15
  %59 = load ptr, ptr %3, align 8, !tbaa !3
  %60 = getelementptr inbounds nuw %struct.ARKodeHAdaptMemRec, ptr %59, i32 0, i32 10
  %61 = load double, ptr %60, align 8, !tbaa !27
  %62 = call i32 (ptr, ptr, ...) @fprintf(ptr noundef %58, ptr noundef @.str.10, double noundef %61) #7
  %63 = load ptr, ptr %4, align 8, !tbaa !15
  %64 = load ptr, ptr %3, align 8, !tbaa !3
  %65 = getelementptr inbounds nuw %struct.ARKodeHAdaptMemRec, ptr %64, i32 0, i32 19
  %66 = load i64, ptr %65, align 8, !tbaa !8
  %67 = call i32 (ptr, ptr, ...) @fprintf(ptr noundef %63, ptr noundef @.str.11, i64 noundef %66) #7
  %68 = load ptr, ptr %4, align 8, !tbaa !15
  %69 = load ptr, ptr %3, align 8, !tbaa !3
  %70 = getelementptr inbounds nuw %struct.ARKodeHAdaptMemRec, ptr %69, i32 0, i32 20
  %71 = load i64, ptr %70, align 8, !tbaa !14
  %72 = call i32 (ptr, ptr, ...) @fprintf(ptr noundef %68, ptr noundef @.str.12, i64 noundef %71) #7
  %73 = load ptr, ptr %4, align 8, !tbaa !15
  %74 = load ptr, ptr %3, align 8, !tbaa !3
  %75 = getelementptr inbounds nuw %struct.ARKodeHAdaptMemRec, ptr %74, i32 0, i32 13
  %76 = load i32, ptr %75, align 8, !tbaa !28
  %77 = call i32 (ptr, ptr, ...) @fprintf(ptr noundef %73, ptr noundef @.str.13, i32 noundef %76) #7
  %78 = load ptr, ptr %4, align 8, !tbaa !15
  %79 = load ptr, ptr %3, align 8, !tbaa !3
  %80 = getelementptr inbounds nuw %struct.ARKodeHAdaptMemRec, ptr %79, i32 0, i32 11
  %81 = load i32, ptr %80, align 8, !tbaa !29
  %82 = call i32 (ptr, ptr, ...) @fprintf(ptr noundef %78, ptr noundef @.str.14, i32 noundef %81) #7
  %83 = load ptr, ptr %4, align 8, !tbaa !15
  %84 = load ptr, ptr %3, align 8, !tbaa !3
  %85 = getelementptr inbounds nuw %struct.ARKodeHAdaptMemRec, ptr %84, i32 0, i32 12
  %86 = load i32, ptr %85, align 4, !tbaa !30
  %87 = call i32 (ptr, ptr, ...) @fprintf(ptr noundef %83, ptr noundef @.str.15, i32 noundef %86) #7
  %88 = load ptr, ptr %4, align 8, !tbaa !15
  %89 = load ptr, ptr %3, align 8, !tbaa !3
  %90 = getelementptr inbounds nuw %struct.ARKodeHAdaptMemRec, ptr %89, i32 0, i32 14
  %91 = load i32, ptr %90, align 4, !tbaa !31
  %92 = call i32 (ptr, ptr, ...) @fprintf(ptr noundef %88, ptr noundef @.str.16, i32 noundef %91) #7
  %93 = load ptr, ptr %3, align 8, !tbaa !3
  %94 = getelementptr inbounds nuw %struct.ARKodeHAdaptMemRec, ptr %93, i32 0, i32 17
  %95 = load ptr, ptr %94, align 8, !tbaa !32
  %96 = icmp eq ptr %95, @arkExpStab
  br i1 %96, label %97, label %100

97:                                               ; preds = %7
  %98 = load ptr, ptr %4, align 8, !tbaa !15
  %99 = call i32 (ptr, ptr, ...) @fprintf(ptr noundef %98, ptr noundef @.str.17) #7
  br label %108

100:                                              ; preds = %7
  %101 = load ptr, ptr %4, align 8, !tbaa !15
  %102 = call i32 (ptr, ptr, ...) @fprintf(ptr noundef %101, ptr noundef @.str.18) #7
  %103 = load ptr, ptr %4, align 8, !tbaa !15
  %104 = load ptr, ptr %3, align 8, !tbaa !3
  %105 = getelementptr inbounds nuw %struct.ARKodeHAdaptMemRec, ptr %104, i32 0, i32 18
  %106 = load ptr, ptr %105, align 8, !tbaa !33
  %107 = call i32 (ptr, ptr, ...) @fprintf(ptr noundef %103, ptr noundef @.str.19, ptr noundef %106) #7
  br label %108

108:                                              ; preds = %100, %97
  %109 = load ptr, ptr %3, align 8, !tbaa !3
  %110 = getelementptr inbounds nuw %struct.ARKodeHAdaptMemRec, ptr %109, i32 0, i32 15
  %111 = load ptr, ptr %110, align 8, !tbaa !34
  %112 = icmp ne ptr %111, null
  br i1 %112, label %113, label %119

113:                                              ; preds = %108
  %114 = load ptr, ptr %3, align 8, !tbaa !3
  %115 = getelementptr inbounds nuw %struct.ARKodeHAdaptMemRec, ptr %114, i32 0, i32 15
  %116 = load ptr, ptr %115, align 8, !tbaa !34
  %117 = load ptr, ptr %4, align 8, !tbaa !15
  %118 = call i32 @SUNAdaptController_Write(ptr noundef %116, ptr noundef %117)
  br label %119

119:                                              ; preds = %113, %108
  br label %120

120:                                              ; preds = %119, %2
  ret void
}