; Function Attrs: nounwind uwtable
define void @arkPrintAdaptMem(ptr noundef readonly captures(address_is_null) %0, ptr noundef %1) local_unnamed_addr #2 {
  %.not = icmp eq ptr %0, null
  br i1 %.not, label %69, label %3

3:                                                ; preds = %2
  %4 = load double, ptr %0, align 8, !tbaa !3
  %5 = tail call i32 (ptr, ptr, ...) @fprintf(ptr noundef %1, ptr noundef nonnull @.str, double noundef %4) #9
  %6 = getelementptr inbounds nuw i8, ptr %0, i64 8
  %7 = load double, ptr %6, align 8, !tbaa !12
  %8 = tail call i32 (ptr, ptr, ...) @fprintf(ptr noundef %1, ptr noundef nonnull @.str.1, double noundef %7) #9
  %9 = getelementptr inbounds nuw i8, ptr %0, i64 16
  %10 = load double, ptr %9, align 8, !tbaa !13
  %11 = tail call i32 (ptr, ptr, ...) @fprintf(ptr noundef %1, ptr noundef nonnull @.str.2, double noundef %10) #9
  %12 = getelementptr inbounds nuw i8, ptr %0, i64 24
  %13 = load double, ptr %12, align 8, !tbaa !14
  %14 = tail call i32 (ptr, ptr, ...) @fprintf(ptr noundef %1, ptr noundef nonnull @.str.3, double noundef %13) #9
  %15 = getelementptr inbounds nuw i8, ptr %0, i64 32
  %16 = load i32, ptr %15, align 8, !tbaa !15
  %17 = tail call i32 (ptr, ptr, ...) @fprintf(ptr noundef %1, ptr noundef nonnull @.str.4, i32 noundef %16) #9
  %18 = getelementptr inbounds nuw i8, ptr %0, i64 40
  %19 = load double, ptr %18, align 8, !tbaa !16
  %20 = tail call i32 (ptr, ptr, ...) @fprintf(ptr noundef %1, ptr noundef nonnull @.str.5, double noundef %19) #9
  %21 = getelementptr inbounds nuw i8, ptr %0, i64 48
  %22 = load double, ptr %21, align 8, !tbaa !17
  %23 = tail call i32 (ptr, ptr, ...) @fprintf(ptr noundef %1, ptr noundef nonnull @.str.6, double noundef %22) #9
  %24 = getelementptr inbounds nuw i8, ptr %0, i64 56
  %25 = load double, ptr %24, align 8, !tbaa !18
  %26 = tail call i32 (ptr, ptr, ...) @fprintf(ptr noundef %1, ptr noundef nonnull @.str.7, double noundef %25) #9
  %27 = getelementptr inbounds nuw i8, ptr %0, i64 64
  %28 = load double, ptr %27, align 8, !tbaa !19
  %29 = tail call i32 (ptr, ptr, ...) @fprintf(ptr noundef %1, ptr noundef nonnull @.str.8, double noundef %28) #9
  %30 = getelementptr inbounds nuw i8, ptr %0, i64 72
  %31 = load double, ptr %30, align 8, !tbaa !20
  %32 = tail call i32 (ptr, ptr, ...) @fprintf(ptr noundef %1, ptr noundef nonnull @.str.9, double noundef %31) #9
  %33 = getelementptr inbounds nuw i8, ptr %0, i64 80
  %34 = load double, ptr %33, align 8, !tbaa !21
  %35 = tail call i32 (ptr, ptr, ...) @fprintf(ptr noundef %1, ptr noundef nonnull @.str.10, double noundef %34) #9
  %36 = getelementptr inbounds nuw i8, ptr %0, i64 136
  %37 = load i64, ptr %36, align 8, !tbaa !22
  %38 = tail call i32 (ptr, ptr, ...) @fprintf(ptr noundef %1, ptr noundef nonnull @.str.11, i64 noundef %37) #9
  %39 = getelementptr inbounds nuw i8, ptr %0, i64 144
  %40 = load i64, ptr %39, align 8, !tbaa !23
  %41 = tail call i32 (ptr, ptr, ...) @fprintf(ptr noundef %1, ptr noundef nonnull @.str.12, i64 noundef %40) #9
  %42 = getelementptr inbounds nuw i8, ptr %0, i64 96
  %43 = load i32, ptr %42, align 8, !tbaa !24
  %44 = tail call i32 (ptr, ptr, ...) @fprintf(ptr noundef %1, ptr noundef nonnull @.str.13, i32 noundef %43) #9
  %45 = getelementptr inbounds nuw i8, ptr %0, i64 88
  %46 = load i32, ptr %45, align 8, !tbaa !25
  %47 = tail call i32 (ptr, ptr, ...) @fprintf(ptr noundef %1, ptr noundef nonnull @.str.14, i32 noundef %46) #9
  %48 = getelementptr inbounds nuw i8, ptr %0, i64 92
  %49 = load i32, ptr %48, align 4, !tbaa !26
  %50 = tail call i32 (ptr, ptr, ...) @fprintf(ptr noundef %1, ptr noundef nonnull @.str.15, i32 noundef %49) #9
  %51 = getelementptr inbounds nuw i8, ptr %0, i64 100
  %52 = load i32, ptr %51, align 4, !tbaa !27
  %53 = tail call i32 (ptr, ptr, ...) @fprintf(ptr noundef %1, ptr noundef nonnull @.str.16, i32 noundef %52) #9
  %54 = getelementptr inbounds nuw i8, ptr %0, i64 120
  %55 = load ptr, ptr %54, align 8, !tbaa !28
  %56 = icmp eq ptr %55, @arkExpStab
  br i1 %56, label %57, label %59

57:                                               ; preds = %3
  %58 = tail call i64 @fwrite(ptr nonnull @.str.17, i64 50, i64 1, ptr %1)
  br label %64

59:                                               ; preds = %3
  %60 = tail call i64 @fwrite(ptr nonnull @.str.18, i64 56, i64 1, ptr %1)
  %61 = getelementptr inbounds nuw i8, ptr %0, i64 128
  %62 = load ptr, ptr %61, align 8, !tbaa !29
  %63 = tail call i32 (ptr, ptr, ...) @fprintf(ptr noundef %1, ptr noundef nonnull @.str.19, ptr noundef %62) #9
  br label %64

64:                                               ; preds = %59, %57
  %65 = getelementptr inbounds nuw i8, ptr %0, i64 104
  %66 = load ptr, ptr %65, align 8, !tbaa !30
  %.not44 = icmp eq ptr %66, null
  br i1 %.not44, label %69, label %67

67:                                               ; preds = %64
  %68 = tail call i32 @SUNAdaptController_Write(ptr noundef nonnull %66, ptr noundef %1) #9
  br label %69

69:                                               ; preds = %64, %67, %2
  ret void
}